target datalayout = "e-m:e-p270:32:32-p271:32:32-p272:64:64-i64:64-i128:128-f80:128-n8:16:32:64-S128"
target triple = "x86_64-pc-linux-gnu"

@pgstat_fetch_consistency = dso_local global i32 1, align 4
@force_stats_snapshot_clear = internal global i8 0, align 1

; Function Attrs: nounwind uwtable
define dso_local void @assign_stats_fetch_consistency(i32 noundef %0, ptr noundef %1) #0 {
  %3 = alloca i32, align 4
  %4 = alloca ptr, align 8
  store i32 %0, ptr %3, align 4
  store ptr %1, ptr %4, align 8
  %5 = load i32, ptr @pgstat_fetch_consistency, align 4
  %6 = load i32, ptr %3, align 4
  %7 = icmp ne i32 %5, %6
  br i1 %7, label %8, label %9

8:                                                ; preds = %2
  store i8 1, ptr @force_stats_snapshot_clear, align 1
  br label %9

9:                                                ; preds = %8, %2
  ret void
}