; Function Attrs: mustprogress nofree norecurse nosync nounwind willreturn memory(readwrite, argmem: none, inaccessiblemem: none) uwtable
define dso_local void @assign_stats_fetch_consistency(i32 noundef %0, ptr noundef readnone captures(none) %1) local_unnamed_addr #11 {
  %3 = load i32, ptr @pgstat_fetch_consistency, align 4
  %.not = icmp eq i32 %3, %0
  br i1 %.not, label %5, label %4

4:                                                ; preds = %2
  store i1 true, ptr @force_stats_snapshot_clear, align 1
  br label %5

5:                                                ; preds = %4, %2
  ret void
}